; Function Attrs: nounwind sspstrong uwtable
define dso_local i64 @rb_str_vcatf(i64 noundef %0, ptr noundef nonnull %1, ptr noundef %2) local_unnamed_addr #0 {
  %4 = alloca i64, align 8
  store i64 %0, ptr %4, align 8, !tbaa !7
  %5 = call i64 @rb_string_value(ptr noundef nonnull %4) #21
  %6 = load i64, ptr %4, align 8, !tbaa !7
  call void @rb_str_modify(i64 noundef %6) #21
  %7 = load i64, ptr %4, align 8, !tbaa !7
  %8 = inttoptr i64 %7 to ptr
  %9 = load i64, ptr %8, align 8, !tbaa !11, !noalias !146
  %10 = and i64 %9, 8192
  %.not.i.i = icmp eq i64 %10, 0
  %11 = getelementptr inbounds nuw i8, ptr %8, i64 24
  br i1 %.not.i.i, label %RSTRING_END.exit, label %12

12:                                               ; preds = %3
  %.sroa.5.0.copyload.i = load ptr, ptr %11, align 8
  br label %RSTRING_END.exit

RSTRING_END.exit:                                 ; preds = %3, %12
  %.sroa.5.0.i = phi ptr [ %.sroa.5.0.copyload.i, %12 ], [ %11, %3 ]
  %.sroa.3.0.in.i = getelementptr inbounds nuw i8, ptr %8, i64 16
  %.sroa.3.0.i = load i64, ptr %.sroa.3.0.in.i, align 8, !tbaa !7
  %13 = getelementptr i8, ptr %.sroa.5.0.i, i64 %.sroa.3.0.i
  call fastcc void @ruby_vsprintf0(i64 noundef %7, ptr noundef %13, ptr noundef %1, ptr noundef %2)
  %14 = load i64, ptr %4, align 8, !tbaa !7
  ret i64 %14
}